; Function Attrs: nounwind uwtable
define range(i32 -22, 1) i32 @av_dict_copy(ptr noundef %0, ptr noundef readonly captures(address_is_null) %1, i32 noundef %2) local_unnamed_addr #3 {
  %4 = getelementptr inbounds nuw i8, ptr %1, i64 8
  %.not.i = icmp eq ptr %1, null
  br i1 %.not.i, label %av_dict_iterate.exit.thread.split, label %.split

.split:                                           ; preds = %3, %16
  %.010 = phi ptr [ %18, %16 ], [ null, %3 ]
  %.not11.i = icmp eq ptr %.010, null
  br i1 %.not11.i, label %13, label %5

5:                                                ; preds = %.split
  %6 = load ptr, ptr %4, align 8, !tbaa !11
  %7 = ptrtoint ptr %.010 to i64
  %8 = ptrtoint ptr %6 to i64
  %9 = sub i64 %7, %8
  %10 = lshr exact i64 %9, 4
  %11 = trunc i64 %10 to i32
  %12 = add i32 %11, 1
  br label %13

13:                                               ; preds = %5, %.split
  %.0.i = phi i32 [ %12, %5 ], [ 0, %.split ]
  %14 = load i32, ptr %1, align 8, !tbaa !4
  %.not12.i = icmp slt i32 %.0.i, %14
  br i1 %.not12.i, label %av_dict_iterate.exit, label %av_dict_iterate.exit.thread.split

av_dict_iterate.exit:                             ; preds = %13
  %15 = load ptr, ptr %4, align 8, !tbaa !11
  %.not = icmp eq ptr %15, null
  br i1 %.not, label %av_dict_iterate.exit.thread.split, label %16

16:                                               ; preds = %av_dict_iterate.exit
  %17 = sext i32 %.0.i to i64
  %18 = getelementptr inbounds %struct.AVDictionaryEntry, ptr %15, i64 %17
  %19 = load ptr, ptr %18, align 8, !tbaa !12
  %20 = getelementptr inbounds nuw i8, ptr %18, i64 8
  %21 = load ptr, ptr %20, align 8, !tbaa !22
  %22 = tail call i32 @av_dict_set(ptr noundef %0, ptr noundef %19, ptr noundef %21, i32 noundef %2)
  %23 = icmp sgt i32 %22, -1
  br i1 %23, label %.split, label %av_dict_iterate.exit.thread.split, !llvm.loop !27

av_dict_iterate.exit.thread.split:                ; preds = %16, %av_dict_iterate.exit, %13, %3
  %.2.split = phi i32 [ 0, %3 ], [ %22, %16 ], [ 0, %av_dict_iterate.exit ], [ 0, %13 ]
  ret i32 %.2.split
}